target datalayout = "e-m:e-p270:32:32-p271:32:32-p272:64:64-i64:64-i128:128-f80:128-n8:16:32:64-S128"
target triple = "x86_64-pc-linux-gnu"

%struct.SDL_DriverSwitch_Context = type <{ ptr, ptr, i8, i8, i8, i8, i32, i8, [3 x i8], i32, i32, i8, i8, [6 x i8], i8, [3 x i8], i32, i8, i8, %struct.SwitchCommonOutputPacket_t, [64 x i8], i8, [7 x i8], i64, i8, i8, [2 x i8], i32, i8, i8, i8, [5 x i8], i64, i64, i64, i32, [4 x i8], i64, i64, i8, %struct.SwitchInputOnlyControllerStatePacket_t, %struct.SwitchSimpleStatePacket_t, %struct.SwitchStatePacket_t, i8, [2 x %struct.StickCalibrationData], [2 x %struct.StickExtents], [2 x %struct.StickExtents], %struct.IMUScaleData, [4 x i8] }>
%struct.SwitchCommonOutputPacket_t = type { i8, i8, [2 x %struct.SwitchRumbleData_t] }
%struct.SwitchRumbleData_t = type { [4 x i8] }
%struct.SwitchInputOnlyControllerStatePacket_t = type { [2 x i8], i8, [2 x i8], [2 x i8] }
%struct.SwitchSimpleStatePacket_t = type <{ [2 x i8], i8, [2 x i16], [2 x i16] }>
%struct.SwitchStatePacket_t = type { %struct.SwitchControllerStatePacket_t, [3 x %struct.anon] }
%struct.SwitchControllerStatePacket_t = type { i8, i8, [3 x i8], [3 x i8], [3 x i8], i8 }
%struct.anon = type { i16, i16, i16, i16, i16, i16 }
%struct.StickCalibrationData = type { [2 x %struct.anon.0] }
%struct.anon.0 = type { i16, i16, i16 }
%struct.StickExtents = type { [2 x %struct.anon.1] }
%struct.anon.1 = type { i16, i16 }
%struct.IMUScaleData = type { float, float, float, float, float, float }
%struct.SDL_HIDAPI_Device = type { ptr, ptr, ptr, ptr, i16, i16, i16, ptr, %struct.SDL_GUID, i32, i32, i32, i32, i16, i16, i8, i32, i32, i32, ptr, ptr, ptr, ptr, %struct.SDL_AtomicInt, i32, ptr, i8, i8, i8, ptr, i32, ptr, ptr }
%struct.SDL_GUID = type { [16 x i8] }
%struct.SDL_AtomicInt = type { i32 }

; Function Attrs: nounwind uwtable
define internal void @SetEnhancedModeAvailable(ptr noundef %0) #0 {
  %2 = alloca ptr, align 8
  store ptr %0, ptr %2, align 8
  %3 = load ptr, ptr %2, align 8
  %4 = getelementptr inbounds nuw %struct.SDL_DriverSwitch_Context, ptr %3, i32 0, i32 18
  %5 = load i8, ptr %4, align 1, !range !3, !noundef !4
  %6 = trunc i8 %5 to i1
  br i1 %6, label %7, label %8

7:                                                ; preds = %1
  br label %73

8:                                                ; preds = %1
  %9 = load ptr, ptr %2, align 8
  %10 = getelementptr inbounds nuw %struct.SDL_DriverSwitch_Context, ptr %9, i32 0, i32 18
  store i8 1, ptr %10, align 1
  %11 = load ptr, ptr %2, align 8
  %12 = getelementptr inbounds nuw %struct.SDL_DriverSwitch_Context, ptr %11, i32 0, i32 28
  %13 = load i8, ptr %12, align 8, !range !3, !noundef !4
  %14 = trunc i8 %13 to i1
  br i1 %14, label %15, label %73

15:                                               ; preds = %8
  %16 = load ptr, ptr %2, align 8
  %17 = getelementptr inbounds nuw %struct.SDL_DriverSwitch_Context, ptr %16, i32 0, i32 0
  %18 = load ptr, ptr %17, align 8
  %19 = getelementptr inbounds nuw %struct.SDL_HIDAPI_Device, ptr %18, i32 0, i32 29
  %20 = load ptr, ptr %19, align 8
  %21 = icmp ne ptr %20, null
  br i1 %21, label %22, label %27

22:                                               ; preds = %15
  %23 = load ptr, ptr %2, align 8
  %24 = getelementptr inbounds nuw %struct.SDL_DriverSwitch_Context, ptr %23, i32 0, i32 10
  %25 = load i32, ptr %24, align 8
  %26 = icmp eq i32 %25, 2
  br i1 %26, label %27, label %34

27:                                               ; preds = %22, %15
  %28 = load ptr, ptr %2, align 8
  %29 = getelementptr inbounds nuw %struct.SDL_DriverSwitch_Context, ptr %28, i32 0, i32 1
  %30 = load ptr, ptr %29, align 8
  call void @SDL_PrivateJoystickAddSensor(ptr noundef %30, i32 noundef 2, float noundef 2.000000e+02)
  %31 = load ptr, ptr %2, align 8
  %32 = getelementptr inbounds nuw %struct.SDL_DriverSwitch_Context, ptr %31, i32 0, i32 1
  %33 = load ptr, ptr %32, align 8
  call void @SDL_PrivateJoystickAddSensor(ptr noundef %33, i32 noundef 1, float noundef 2.000000e+02)
  br label %34

34:                                               ; preds = %27, %22
  %35 = load ptr, ptr %2, align 8
  %36 = getelementptr inbounds nuw %struct.SDL_DriverSwitch_Context, ptr %35, i32 0, i32 0
  %37 = load ptr, ptr %36, align 8
  %38 = getelementptr inbounds nuw %struct.SDL_HIDAPI_Device, ptr %37, i32 0, i32 29
  %39 = load ptr, ptr %38, align 8
  %40 = icmp ne ptr %39, null
  br i1 %40, label %41, label %53

41:                                               ; preds = %34
  %42 = load ptr, ptr %2, align 8
  %43 = getelementptr inbounds nuw %struct.SDL_DriverSwitch_Context, ptr %42, i32 0, i32 10
  %44 = load i32, ptr %43, align 8
  %45 = icmp eq i32 %44, 1
  br i1 %45, label %46, label %53

46:                                               ; preds = %41
  %47 = load ptr, ptr %2, align 8
  %48 = getelementptr inbounds nuw %struct.SDL_DriverSwitch_Context, ptr %47, i32 0, i32 1
  %49 = load ptr, ptr %48, align 8
  call void @SDL_PrivateJoystickAddSensor(ptr noundef %49, i32 noundef 4, float noundef 2.000000e+02)
  %50 = load ptr, ptr %2, align 8
  %51 = getelementptr inbounds nuw %struct.SDL_DriverSwitch_Context, ptr %50, i32 0, i32 1
  %52 = load ptr, ptr %51, align 8
  call void @SDL_PrivateJoystickAddSensor(ptr noundef %52, i32 noundef 3, float noundef 2.000000e+02)
  br label %53

53:                                               ; preds = %46, %41, %34
  %54 = load ptr, ptr %2, align 8
  %55 = getelementptr inbounds nuw %struct.SDL_DriverSwitch_Context, ptr %54, i32 0, i32 0
  %56 = load ptr, ptr %55, align 8
  %57 = getelementptr inbounds nuw %struct.SDL_HIDAPI_Device, ptr %56, i32 0, i32 29
  %58 = load ptr, ptr %57, align 8
  %59 = icmp ne ptr %58, null
  br i1 %59, label %60, label %72

60:                                               ; preds = %53
  %61 = load ptr, ptr %2, align 8
  %62 = getelementptr inbounds nuw %struct.SDL_DriverSwitch_Context, ptr %61, i32 0, i32 10
  %63 = load i32, ptr %62, align 8
  %64 = icmp eq i32 %63, 2
  br i1 %64, label %65, label %72

65:                                               ; preds = %60
  %66 = load ptr, ptr %2, align 8
  %67 = getelementptr inbounds nuw %struct.SDL_DriverSwitch_Context, ptr %66, i32 0, i32 1
  %68 = load ptr, ptr %67, align 8
  call void @SDL_PrivateJoystickAddSensor(ptr noundef %68, i32 noundef 6, float noundef 2.000000e+02)
  %69 = load ptr, ptr %2, align 8
  %70 = getelementptr inbounds nuw %struct.SDL_DriverSwitch_Context, ptr %69, i32 0, i32 1
  %71 = load ptr, ptr %70, align 8
  call void @SDL_PrivateJoystickAddSensor(ptr noundef %71, i32 noundef 5, float noundef 2.000000e+02)
  br label %72

72:                                               ; preds = %65, %60, %53
  br label %73

73:                                               ; preds = %7, %72, %8
  ret void
}