; Function Attrs: nounwind uwtable
define internal fastcc void @SetEnhancedModeAvailable(ptr noundef captures(none) %0) unnamed_addr #0 {
  %2 = getelementptr inbounds nuw i8, ptr %0, i64 53
  %3 = load i8, ptr %2, align 1, !range !3, !noundef !4
  %4 = trunc nuw i8 %3 to i1
  br i1 %4, label %.thread22, label %5

5:                                                ; preds = %1
  store i8 1, ptr %2, align 1
  %6 = getelementptr inbounds nuw i8, ptr %0, i64 152
  %7 = load i8, ptr %6, align 8, !range !3, !noundef !4
  %8 = trunc nuw i8 %7 to i1
  br i1 %8, label %9, label %.thread22

9:                                                ; preds = %5
  %10 = load ptr, ptr %0, align 8
  %11 = getelementptr inbounds nuw i8, ptr %10, i64 160
  %12 = load ptr, ptr %11, align 8
  %.not = icmp eq ptr %12, null
  br i1 %.not, label %17, label %13

13:                                               ; preds = %9
  %14 = getelementptr inbounds nuw i8, ptr %0, i64 32
  %15 = load i32, ptr %14, align 8
  %16 = icmp eq i32 %15, 2
  br i1 %16, label %17, label %.thread

17:                                               ; preds = %9, %13
  %18 = getelementptr inbounds nuw i8, ptr %0, i64 8
  %19 = load ptr, ptr %18, align 8
  tail call void @SDL_PrivateJoystickAddSensor(ptr noundef %19, i32 noundef 2, float noundef 2.000000e+02) #9
  %20 = load ptr, ptr %18, align 8
  tail call void @SDL_PrivateJoystickAddSensor(ptr noundef %20, i32 noundef 1, float noundef 2.000000e+02) #9
  %.pre = load ptr, ptr %0, align 8
  %.phi.trans.insert = getelementptr inbounds nuw i8, ptr %.pre, i64 160
  %.pre17 = load ptr, ptr %.phi.trans.insert, align 8
  %21 = icmp eq ptr %.pre17, null
  br i1 %21, label %.thread22, label %.thread

.thread:                                          ; preds = %13, %17
  %22 = getelementptr inbounds nuw i8, ptr %0, i64 32
  %23 = load i32, ptr %22, align 8
  %24 = icmp eq i32 %23, 1
  br i1 %24, label %25, label %.thread24

25:                                               ; preds = %.thread
  %26 = getelementptr inbounds nuw i8, ptr %0, i64 8
  %27 = load ptr, ptr %26, align 8
  tail call void @SDL_PrivateJoystickAddSensor(ptr noundef %27, i32 noundef 4, float noundef 2.000000e+02) #9
  %28 = load ptr, ptr %26, align 8
  tail call void @SDL_PrivateJoystickAddSensor(ptr noundef %28, i32 noundef 3, float noundef 2.000000e+02) #9
  %.pre18 = load ptr, ptr %0, align 8
  %.phi.trans.insert19 = getelementptr inbounds nuw i8, ptr %.pre18, i64 160
  %.pre20 = load ptr, ptr %.phi.trans.insert19, align 8
  %29 = icmp eq ptr %.pre20, null
  br i1 %29, label %.thread22, label %.thread24

.thread24:                                        ; preds = %.thread, %25
  %30 = getelementptr inbounds nuw i8, ptr %0, i64 32
  %31 = load i32, ptr %30, align 8
  %32 = icmp eq i32 %31, 2
  br i1 %32, label %33, label %.thread22

33:                                               ; preds = %.thread24
  %34 = getelementptr inbounds nuw i8, ptr %0, i64 8
  %35 = load ptr, ptr %34, align 8
  tail call void @SDL_PrivateJoystickAddSensor(ptr noundef %35, i32 noundef 6, float noundef 2.000000e+02) #9
  %36 = load ptr, ptr %34, align 8
  tail call void @SDL_PrivateJoystickAddSensor(ptr noundef %36, i32 noundef 5, float noundef 2.000000e+02) #9
  br label %.thread22

.thread22:                                        ; preds = %17, %25, %.thread24, %33, %1, %5
  ret void
}